(lp0
(i__main__
MeasurementObject
p1
(dp2
S'minDelay'
p3
F0.7989406585693359
sS'maxDelay'
p4
F19.87314224243164
sS'JITTER'
p5
S'20ms'
p6
sS'FILE_NUMBER'
p7
S'2'
p8
sS'maxNumberOfPackets'
p9
cnumpy.core.multiarray
scalar
p10
(cnumpy
dtype
p11
(S'i4'
p12
I0
I1
tp13
Rp14
(I3
S'<'
p15
NNNI-1
I-1
I0
tp16
bS';\x05\x00\x00'
p17
tp18
Rp19
sS'numberOfContentObjects'
p20
I12773
sS'delayOfMaxNumOfPacketsMax'
p21
g10
(g11
(S'f8'
p22
I0
I1
tp23
Rp24
(I3
S'<'
p25
NNNI-1
I-1
I0
tp26
bS'\x11u3hys\xf4?'
p27
tp28
Rp29
sS'filename'
p30
S'2_file_delay_200ms_jit_20ms_cache_50000_secondDownload'
p31
sS'DELAY'
p32
S'200ms'
p33
sS'delayOfMaxNumOfPacketsMin'
p34
g10
(g24
S't*) \xdf\xea\xf2?'
p35
tp36
Rp37
sS'stdDev'
p38
g10
(g24
S't\xd9\xfc\n\t\xce\xfc?'
p39
tp40
Rp41
sS'CACHE_SIZE'
p42
S'50000'
p43
sS'downloadTime'
p44
F120.6659140586853
sS'meanDelay'
p45
g10
(g24
S'\x1e\xa0\xed\xb1\xa3\x8c\x01@'
p46
tp47
Rp48
sba(i__main__
MeasurementObject
p49
(dp50
g3
F186.84792518615723
sg4
F405.92312812805176
sg5
S'20ms'
p51
sg7
g8
sg9
g10
(g14
S':\x03\x00\x00'
p52
tp53
Rp54
sg20
I12833
sg21
g10
(g24
S'\xd6\xd6\xdf\xa2\x1e,l@'
p55
tp56
Rp57
sg30
S'2_file_delay_200ms_jit_20ms_cache_50000'
p58
sg32
S'200ms'
p59
sg34
g10
(g24
S'\xedxN9\xe4\x08l@'
p60
tp61
Rp62
sg38
g10
(g24
S'u)\x9a-\xf4\xd1&@'
p63
tp64
Rp65
sg42
S'50000'
p66
sg44
F801.8838210105896
sg45
g10
(g24
S'_O\xc5\x89\x00;l@'
p67
tp68
Rp69
sba.