(lp0
(i__main__
MeasurementObject
p1
(dp2
S'minDelay'
p3
F193.66216659545898
sS'maxDelay'
p4
F288.32507133483887
sS'JITTER'
p5
S'20ms'
p6
sS'FILE_NUMBER'
p7
S'2'
p8
sS'maxNumberOfPackets'
p9
cnumpy.core.multiarray
scalar
p10
(cnumpy
dtype
p11
(S'i4'
p12
I0
I1
tp13
Rp14
(I3
S'<'
p15
NNNI-1
I-1
I0
tp16
bS'\x81\x01\x00\x00'
p17
tp18
Rp19
sS'numberOfContentObjects'
p20
I12784
sS'delayOfMaxNumOfPacketsMax'
p21
g10
(g11
(S'f8'
p22
I0
I1
tp23
Rp24
(I3
S'<'
p25
NNNI-1
I-1
I0
tp26
bS'l\xf4\xae|h\x8cl@'
p27
tp28
Rp29
sS'filename'
p30
S'2_file_delay_200ms_jit_20ms_cache_10000'
p31
sS'DELAY'
p32
S'200ms'
p33
sS'delayOfMaxNumOfPacketsMin'
p34
g10
(g24
S'\xc2O.\x9c/}l@'
p35
tp36
Rp37
sS'stdDev'
p38
g10
(g24
S'\xa9\xc7\xc7\xa5\x85/!@'
p39
tp40
Rp41
sS'CACHE_SIZE'
p42
S'10000'
p43
sS'downloadTime'
p44
F798.585079908371
sS'meanDelay'
p45
g10
(g24
S'\x9dI\xb6\x12=6l@'
p46
tp47
Rp48
sba(i__main__
MeasurementObject
p49
(dp50
g3
F0.7989406585693359
sg4
F19.87314224243164
sg5
S'20ms'
p51
sg7
g8
sg9
g10
(g14
S';\x05\x00\x00'
p52
tp53
Rp54
sg20
I12773
sg21
g10
(g24
S'\x11u3hys\xf4?'
p55
tp56
Rp57
sg30
S'2_file_delay_200ms_jit_20ms_cache_50000_secondDownload'
p58
sg32
S'200ms'
p59
sg34
g10
(g24
S't*) \xdf\xea\xf2?'
p60
tp61
Rp62
sg38
g10
(g24
S't\xd9\xfc\n\t\xce\xfc?'
p63
tp64
Rp65
sg42
S'50000'
p66
sg44
F120.6659140586853
sg45
g10
(g24
S'\x1e\xa0\xed\xb1\xa3\x8c\x01@'
p67
tp68
Rp69
sba(i__main__
MeasurementObject
p70
(dp71
g3
F0.9210109710693359
sg4
F135.4358196258545
sg5
S'20ms'
p72
sg7
g8
sg9
g10
(g14
S'\x9e\x12\x00\x00'
p73
tp74
Rp75
sg20
I12645
sg21
g10
(g24
S'4h\xd9\xf1\xef.\x02@'
p76
tp77
Rp78
sg30
S'2_file_delay_200ms_jit_20ms_cache_20000_seconDownload'
p79
sg32
S'200ms'
p80
sg34
g10
(g24
S'4h\xd9\xf1*\x8d\xf9?'
p81
tp82
Rp83
sg38
g10
(g24
S'KTha%J\x01@'
p84
tp85
Rp86
sg42
S'20000'
p87
sg44
F124.41156697273254
sg45
g10
(g24
S'F\x18m\xec\x83\xf3\x03@'
p88
tp89
Rp90
sba(i__main__
MeasurementObject
p91
(dp92
g3
F191.9858455657959
sg4
F350.3551483154297
sg5
S'20ms'
p93
sg7
g8
sg9
g10
(g14
S'n\x02\x00\x00'
p94
tp95
Rp96
sg20
I12784
sg21
g10
(g24
S'\xcc\x97&6\x89yl@'
p97
tp98
Rp99
sg30
S'2_file_delay_200ms_jit_20ms_cache_20000'
p100
sg32
S'200ms'
p101
sg34
g10
(g24
S'\xeaf\xd0\xce\x11`l@'
p102
tp103
Rp104
sg38
g10
(g24
S'\x89\x19\xf6SLD#@'
p105
tp106
Rp107
sg42
S'20000'
p108
sg44
F802.9351048469543
sg45
g10
(g24
S'\xaa\x17kW\xb3Gl@'
p109
tp110
Rp111
sba(i__main__
MeasurementObject
p112
(dp113
g3
F186.84792518615723
sg4
F405.92312812805176
sg5
S'20ms'
p114
sg7
g8
sg9
g10
(g14
S':\x03\x00\x00'
p115
tp116
Rp117
sg20
I12833
sg21
g10
(g24
S'\xd6\xd6\xdf\xa2\x1e,l@'
p118
tp119
Rp120
sg30
S'2_file_delay_200ms_jit_20ms_cache_50000'
p121
sg32
S'200ms'
p122
sg34
g10
(g24
S'\xedxN9\xe4\x08l@'
p123
tp124
Rp125
sg38
g10
(g24
S'u)\x9a-\xf4\xd1&@'
p126
tp127
Rp128
sg42
S'50000'
p129
sg44
F801.8838210105896
sg45
g10
(g24
S'_O\xc5\x89\x00;l@'
p130
tp131
Rp132
sba(i__main__
MeasurementObject
p133
(dp134
g3
F192.0640468597412
sg4
F369.54212188720703
sg5
S'20ms'
p135
sg7
g8
sg9
g10
(g14
S'\xae\x02\x00\x00'
p136
tp137
Rp138
sg20
I12832
sg21
g10
(g24
S'\x81\x84\x9f\xec\x13[l@'
p139
tp140
Rp141
sg30
S'2_file_delay_200ms_jit_20ms_cache_10000_secondDownload'
p142
sg32
S'200ms'
p143
sg34
g10
(g24
S'"\xeaf\xe4\x89>l@'
p144
tp145
Rp146
sg38
g10
(g24
S'\xaf\xb2<^I<#@'
p147
tp148
Rp149
sg42
S'10000'
p150
sg44
F788.6000521183014
sg45
g10
(g24
S'\x04"y\x9d\xe5\xffk@'
p151
tp152
Rp153
sba.