(lp0
(i__main__
MeasurementObject
p1
(dp2
S'minDelay'
p3
F5.763053894042969
sS'maxDelay'
p4
F295.17197608947754
sS'JITTER'
p5
S'20ms'
p6
sS'FILE_NUMBER'
p7
S'2'
p8
sS'maxNumberOfPackets'
p9
cnumpy.core.multiarray
scalar
p10
(cnumpy
dtype
p11
(S'i4'
p12
I0
I1
tp13
Rp14
(I3
S'<'
p15
NNNI-1
I-1
I0
tp16
bS'2\x04\x00\x00'
p17
tp18
Rp19
sS'numberOfContentObjects'
p20
I12788
sS'delayOfMaxNumOfPacketsMax'
p21
g10
(g11
(S'f8'
p22
I0
I1
tp23
Rp24
(I3
S'<'
p25
NNNI-1
I-1
I0
tp26
bS'D\xd4\xcd06Zl@'
p27
tp28
Rp29
sS'filename'
p30
S'2_file_delay_200ms_jit_20ms_cache_50000_mtu150'
p31
sS'DELAY'
p32
S'200ms'
p33
sS'delayOfMaxNumOfPacketsMin'
p34
g10
(g24
S'\x14\x87\xb1n\xac+l@'
p35
tp36
Rp37
sS'stdDev'
p38
g10
(g24
S'\xdb?\x13LW\x0b"@'
p39
tp40
Rp41
sS'CACHE_SIZE'
p42
S'50000'
p43
sS'downloadTime'
p44
F804.0039050579071
sS'meanDelay'
p45
g10
(g24
S'\x95\xb0\x05\xb2\xe6\x1fl@'
p46
tp47
Rp48
sba(i__main__
MeasurementObject
p49
(dp50
g3
F192.4130916595459
sg4
F350.675106048584
sg5
S'20ms'
p51
sg7
g8
sg9
g10
(g14
S'S\x02\x00\x00'
p52
tp53
Rp54
sg20
I12831
sg21
g10
(g24
S'\xba\x19\xb4\x80\x15:l@'
p55
tp56
Rp57
sg30
S'2_file_delay_200ms_jit_20ms_cache_50000_mtu3000'
p58
sg32
S'200ms'
p59
sg34
g10
(g24
S'N%\x05\x84\xa2 l@'
p60
tp61
Rp62
sg38
g10
(g24
S'\xf3a3\x15\xaat"@'
p63
tp64
Rp65
sg42
S'50000'
p66
sg44
F805.5986068248749
sg45
g10
(g24
S'D\x1c\x85\x89W\x1al@'
p67
tp68
Rp69
sba(i__main__
MeasurementObject
p70
(dp71
g3
F191.78318977355957
sg4
F527.1151065826416
sg5
S'20ms'
p72
sg7
g8
sg9
g10
(g14
S'\x06\x05\x00\x00'
p73
tp74
Rp75
sg20
I12833
sg21
g10
(g24
S'\xe20Vopel@'
p76
tp77
Rp78
sg30
S'2_file_delay_200ms_jit_20ms_cache_50000_mtu300'
p79
sg32
S'200ms'
p80
sg34
g10
(g24
S'\x14\x90\xf07\x84/l@'
p81
tp82
Rp83
sg38
g10
(g24
S'zv\x98\x05\x90\xa0"@'
p84
tp85
Rp86
sg42
S'50000'
p87
sg44
F784.2592599391937
sg45
g10
(g24
S'\x90?&\xaf\xae"l@'
p88
tp89
Rp90
sba(i__main__
MeasurementObject
p91
(dp92
g3
F191.28894805908203
sg4
F562.734842300415
sg5
S'20ms'
p93
sg7
g8
sg9
g10
(g14
S'\x18\x05\x00\x00'
p94
tp95
Rp96
sg20
I12833
sg21
g10
(g24
S'\xc9\x85\xa8\xbf\x1dXl@'
p97
tp98
Rp99
sg30
S'2_file_delay_200ms_jit_20ms_cache_50000_mtu1500'
p100
sg32
S'200ms'
p101
sg34
g10
(g24
S'8\x8c\xd5\xdeb\x1cl@'
p102
tp103
Rp104
sg38
g10
(g24
S'\xe1\xc7#\xe8\xe1\x1a%@'
p105
tp106
Rp107
sg42
S'50000'
p108
sg44
F806.6124050617218
sg45
g10
(g24
S'\x85\xab\x1a\r\xbaEl@'
p109
tp110
Rp111
sba(i__main__
MeasurementObject
p112
(dp113
g3
F192.77095794677734
sg4
F354.86316680908203
sg5
S'20ms'
p114
sg7
g8
sg9
g10
(g14
S'\xb5\x02\x00\x00'
p115
tp116
Rp117
sg20
I12833
sg21
g10
(g24
S'\xbe+2o5\x11l@'
p118
tp119
Rp120
sg30
S'2_file_delay_200ms_jit_20ms_cache_50000_mtu750'
p121
sg32
S'200ms'
p122
sg34
g10
(g24
S'j\xe20\xc6$\xf7k@'
p123
tp124
Rp125
sg38
g10
(g24
S'\x87\x0f.\x9d\x01\xa1!@'
p126
tp127
Rp128
sg42
S'50000'
p129
sg44
F781.9538350105286
sg45
g10
(g24
S'\x82\xfb\x08\x02\n\xd2k@'
p130
tp131
Rp132
sba.