(lp0
(i__main__
MeasurementObject
p1
(dp2
S'minDelay'
p3
F1.992940902709961
sS'maxDelay'
p4
F125.46706199645996
sS'JITTER'
p5
S'0ms'
p6
sS'FILE_NUMBER'
p7
S'2'
p8
sS'maxNumberOfPackets'
p9
cnumpy.core.multiarray
scalar
p10
(cnumpy
dtype
p11
(S'i4'
p12
I0
I1
tp13
Rp14
(I3
S'<'
p15
NNNI-1
I-1
I0
tp16
bS'%\x05\x00\x00'
p17
tp18
Rp19
sS'numberOfContentObjects'
p20
I12717
sS'delayOfMaxNumOfPacketsMax'
p21
g10
(g11
(S'f8'
p22
I0
I1
tp23
Rp24
(I3
S'<'
p25
NNNI-1
I-1
I0
tp26
bS'\x8d\xde\x15\x19\xf5\xdc\x16@'
p27
tp28
Rp29
sS'filename'
p30
S'2_file_delay_0ms_jit_0ms_cache_10'
p31
sS'DELAY'
p32
S'0ms'
p33
sS'delayOfMaxNumOfPacketsMin'
p34
g10
(g24
S'\xcb\x8e\xe7\xd4\x97a\x14@'
p35
tp36
Rp37
sS'stdDev'
p38
g10
(g24
S'\xbe\x04VD6\xcb\x12@'
p39
tp40
Rp41
sS'CACHE_SIZE'
p42
S'10'
p43
sS'downloadTime'
p44
F50.415874004364014
sS'meanDelay'
p45
g10
(g24
S'\xa6\xa6\xef=\xae\x16 @'
p46
tp47
Rp48
sba(i__main__
MeasurementObject
p49
(dp50
g3
F0.514984130859375
sg4
F160.599946975708
sg5
S'0ms'
p51
sg7
g8
sg9
g10
(g14
S'\x1f\x05\x00\x00'
p52
tp53
Rp54
sg20
I12365
sg21
g10
(g24
S'`\xa3w\xc5\x9e\x95\x18@'
p55
tp56
Rp57
sg30
S'2_file_delay_0ms_jit_0ms_cache_10_secondDownload'
p58
sg32
S'0ms'
p59
sg34
g10
(g24
S'\xe5B\xd4\xcd\xdd]\x15@'
p60
tp61
Rp62
sg38
g10
(g24
S'\xee\xfe\xa4j_^(@'
p63
tp64
Rp65
sg42
S'10'
p66
sg44
F81.66602301597595
sg45
g10
(g24
S'\x9d\x8f+\xeb!\xb8(@'
p67
tp68
Rp69
sba(i__main__
MeasurementObject
p70
(dp71
g3
F2.0339488983154297
sg4
F342.00310707092285
sg5
S'0ms'
p72
sg7
g8
sg9
g10
(g14
S'\x86\x0f\x00\x00'
p73
tp74
Rp75
sg20
I12571
sg21
g10
(g24
S'\xde\x15\x99\xaf\x8a\xcd\x15@'
p76
tp77
Rp78
sg30
S'2_file_delay_0ms_jit_0ms_cache_50000'
p79
sg32
S'0ms'
p80
sg34
g10
(g24
S'\xde\x15\x99/N\xf0\r@'
p81
tp82
Rp83
sg38
g10
(g24
S'\x1c\xe6\xdb\x99}\\\x1f@'
p84
tp85
Rp86
sg42
S'50000'
p87
sg44
F64.88752102851868
sg45
g10
(g24
S';\x04A\x06K\x85 @'
p88
tp89
Rp90
sba(i__main__
MeasurementObject
p91
(dp92
g3
F1.9519329071044922
sg4
F119.72904205322266
sg5
S'0ms'
p93
sg7
g8
sg9
g10
(g14
S'\xe5\x00\x00\x00'
p94
tp95
Rp96
sg20
I2453
sg21
g10
(g24
S'\xfe\xf6\xc0F\x06\xa5\x13@'
p97
tp98
Rp99
sg30
S'2_file_delay_0ms_jit_0ms_cache_20000_secondDownload'
p100
sg32
S'0ms'
p101
sg34
g10
(g24
S'2_\x9a\xb8\xf9F\x11@'
p102
tp103
Rp104
sg38
g10
(g24
S'\x0c\xbf\xfd9b\xd3*@'
p105
tp106
Rp107
sg42
S'20000'
p108
sg44
F15.7549569606781
sg45
g10
(g24
S'\n\xdf\xf0KX\xca(@'
p109
tp110
Rp111
sba(i__main__
MeasurementObject
p112
(dp113
g3
I0
sg4
I0
sg5
S'0ms'
p114
sg7
g8
sg9
I0
sg20
I0
sg21
I0
sg30
S'2_file_delay_0ms_jit_0ms_cache_50000_secondDownload'
p115
sg32
S'0ms'
p116
sg34
I0
sg38
I0
sg42
S'50000'
p117
sg44
I0
sg45
I0
sba(i__main__
MeasurementObject
p118
(dp119
g3
F0.6198883056640625
sg4
F277.2359848022461
sg5
S'0ms'
p120
sg7
g8
sg9
g10
(g14
S'\x89\t\x00\x00'
p121
tp122
Rp123
sg20
I12551
sg21
g10
(g24
S'v<\xa7\x92\x8e\xeb!@'
p124
tp125
Rp126
sg30
S'2_file_delay_0ms_jit_0ms_cache_5000'
p127
sg32
S'0ms'
p128
sg34
g10
(g24
S'p\x0fl\xf4\xb8G\x1e@'
p129
tp130
Rp131
sg38
g10
(g24
S'\x8b\x98\xfe=\x0f\xcf%@'
p132
tp133
Rp134
sg42
S'5000'
p135
sg44
F80.69380307197571
sg45
g10
(g24
S'Z\x94\x08\xffh\x95&@'
p136
tp137
Rp138
sba(i__main__
MeasurementObject
p139
(dp140
g3
F1.3589859008789062
sg4
F199.3718147277832
sg5
S'0ms'
p141
sg7
g8
sg9
g10
(g14
S'\xbc\x05\x00\x00'
p142
tp143
Rp144
sg20
I12597
sg21
g10
(g24
S'F\xe6K\x93\x05\xa6 @'
p145
tp146
Rp147
sg30
S'2_file_delay_0ms_jit_0ms_cache_20000'
p148
sg32
S'0ms'
p149
sg34
g10
(g24
S'\x9cA\xcb\x8e\x1fQ\x1d@'
p150
tp151
Rp152
sg38
g10
(g24
S"6\xf0\x1f\xfcP\xe0'@"
p153
tp154
Rp155
sg42
S'20000'
p156
sg44
F84.11954116821289
sg45
g10
(g24
S'\xf5\x05>\xb4\x89\xaa)@'
p157
tp158
Rp159
sba(i__main__
MeasurementObject
p160
(dp161
g3
F0.7040500640869141
sg4
F315.7219886779785
sg5
S'0ms'
p162
sg7
g8
sg9
g10
(g14
S'\xfa\x07\x00\x00'
p163
tp164
Rp165
sg20
I12372
sg21
g10
(g24
S'\t?\xb9\x10\xf0\xcf\x15@'
p166
tp167
Rp168
sg30
S'2_file_delay_0ms_jit_0ms_cache_5000_secondDownload'
p169
sg32
S'0ms'
p170
sg34
g10
(g24
S'\xb7\xfe\xf6\xc0\xe1\xf5\x0e@'
p171
tp172
Rp173
sg38
g10
(g24
S'\x85\xf5\xd3\xf9\xeeK/@'
p174
tp175
Rp176
sg42
S'5000'
p177
sg44
F94.35891103744507
sg45
g10
(g24
S'\x06\xff\xd9.`\xdb+@'
p178
tp179
Rp180
sba.