(lp0
(i__main__
MeasurementObject
p1
(dp2
S'minDelay'
p3
F2.4728775024414062
sS'maxDelay'
p4
F318.3720111846924
sS'JITTER'
p5
S'10ms'
p6
sS'FILE_NUMBER'
p7
S'2'
p8
sS'maxNumberOfPackets'
p9
cnumpy.core.multiarray
scalar
p10
(cnumpy
dtype
p11
(S'i4'
p12
I0
I1
tp13
Rp14
(I3
S'<'
p15
NNNI-1
I-1
I0
tp16
bS'N\x07\x00\x00'
p17
tp18
Rp19
sS'numberOfContentObjects'
p20
I12831
sS'delayOfMaxNumOfPacketsMax'
p21
g10
(g11
(S'f8'
p22
I0
I1
tp23
Rp24
(I3
S'<'
p25
NNNI-1
I-1
I0
tp26
bS'k\xebo\x17\x8f\xcb\\@'
p27
tp28
Rp29
sS'filename'
p30
S'2_file_delay_100ms_jit_10ms_cache_10_secondDownload'
p31
sS'DELAY'
p32
S'100ms'
p33
sS'delayOfMaxNumOfPacketsMin'
p34
g10
(g24
S'B\xcb\x8e\x97\xf6e\\@'
p35
tp36
Rp37
sS'stdDev'
p38
g10
(g24
S'+\xbd\xbf\xcc\xe8B @'
p39
tp40
Rp41
sS'CACHE_SIZE'
p42
S'10'
p43
sS'downloadTime'
p44
F453.5340850353241
sS'meanDelay'
p45
g10
(g24
S'\xe6\xc0\x9d\x95\x99"]@'
p46
tp47
Rp48
sba(i__main__
MeasurementObject
p49
(dp50
g3
F97.65815734863281
sg4
F291.05091094970703
sg5
S'10ms'
p51
sg7
g8
sg9
g10
(g14
S'\xba\x03\x00\x00'
p52
tp53
Rp54
sg20
I12834
sg21
g10
(g24
S'\x87\xb1\xdaz\xa9\xc9\\@'
p55
tp56
Rp57
sg30
S'2_file_delay_100ms_jit_10ms_cache_5000_secondDownload'
p58
sg32
S'100ms'
p59
sg34
g10
(g24
S'UR@"w\x8b\\@'
p60
tp61
Rp62
sg38
g10
(g24
S'\x12e\xbb\x8bc\x1c0@'
p63
tp64
Rp65
sg42
S'5000'
p66
sg44
F474.4017241001129
sg45
g10
(g24
S'\x18\xcfal\xe9\x98^@'
p67
tp68
Rp69
sba(i__main__
MeasurementObject
p70
(dp71
g3
F97.96500205993652
sg4
F165.3730869293213
sg5
S'10ms'
p72
sg7
g8
sg9
g10
(g14
S'\xa6\x01\x00\x00'
p73
tp74
Rp75
sg20
I12784
sg21
g10
(g24
S'\xb8\x076bc\xcf\\@'
p76
tp77
Rp78
sg30
S'2_file_delay_100ms_jit_10ms_cache_5000'
p79
sg32
S'100ms'
p80
sg34
g10
(g24
S'\xbe4q\x90\xb5\xb9\\@'
p81
tp82
Rp83
sg38
g10
(g24
S'\xa5\xd8]\xd0q\xc4\x1d@'
p84
tp85
Rp86
sg42
S'5000'
p87
sg44
F488.3228130340576
sg45
g10
(g24
S'/\xb4\x87S\xb7.]@'
p88
tp89
Rp90
sba(i__main__
MeasurementObject
p91
(dp92
g3
F97.52511978149414
sg4
F36402.26101875305
sg5
S'10ms'
p93
sg7
g8
sg9
g10
(g14
S'\xe71\x00\x00'
p94
tp95
Rp96
sg20
I12784
sg21
g10
(g24
S'?\xb9\x10+`\x7fq@'
p97
tp98
Rp99
sg30
S'2_file_delay_100ms_jit_10ms_cache_10'
p100
sg32
S'100ms'
p101
sg34
g10
(g24
S'\x00\x00\x00\x90\x9baX@'
p102
tp103
Rp104
sg38
g10
(g24
S'Q\xe6\x91\x00\xe7\x11t@'
p105
tp106
Rp107
sg42
S'10'
p108
sg44
F484.48559498786926
sg45
g10
(g24
S'A\x8d\x06\xf1\xc3\xea]@'
p109
tp110
Rp111
sba.