(lp0
(i__main__
MeasurementObject
p1
(dp2
S'minDelay'
p3
I0
sS'maxDelay'
p4
I0
sS'JITTER'
p5
S'10ms'
p6
sS'FILE_NUMBER'
p7
S'2'
p8
sS'maxNumberOfPackets'
p9
I0
sS'numberOfContentObjects'
p10
I0
sS'delayOfMaxNumOfPacketsMax'
p11
I0
sS'filename'
p12
S'2_file_delay_100ms_jit_10ms_cache_20000_secondDownload'
p13
sS'DELAY'
p14
S'100ms'
p15
sS'delayOfMaxNumOfPacketsMin'
p16
I0
sS'stdDev'
p17
I0
sS'CACHE_SIZE'
p18
S'20000'
p19
sS'downloadTime'
p20
I0
sS'meanDelay'
p21
I0
sba(i__main__
MeasurementObject
p22
(dp23
g3
F95.01910209655762
sg4
F196.2270736694336
sg5
S'10ms'
p24
sg7
g8
sg9
cnumpy.core.multiarray
scalar
p25
(cnumpy
dtype
p26
(S'i4'
p27
I0
I1
tp28
Rp29
(I3
S'<'
p30
NNNI-1
I-1
I0
tp31
bS'\xac\x03\x00\x00'
p32
tp33
Rp34
sg10
I12834
sg11
g25
(g26
(S'f8'
p35
I0
I1
tp36
Rp37
(I3
S'<'
p38
NNNI-1
I-1
I0
tp39
bS'\xd6\xd6\xdfnY\xf3[@'
p40
tp41
Rp42
sg12
S'2_file_delay_100ms_jit_10ms_cache_5000_secondDownload'
p43
sg14
S'100ms'
p44
sg16
g25
(g37
S'\xd7\xdf\x1e\xd0\xcc\xd2[@'
p45
tp46
Rp47
sg17
g25
(g37
S'c\xdf\xd26\xdeP\x11@'
p48
tp49
Rp50
sg18
S'5000'
p51
sg20
F434.1510000228882
sg21
g25
(g37
S'A}\x05U\x10\x87[@'
p52
tp53
Rp54
sba(i__main__
MeasurementObject
p55
(dp56
g3
F95.13401985168457
sg4
F153.3219814300537
sg5
S'10ms'
p57
sg7
g8
sg9
g25
(g29
S'\x19\x02\x00\x00'
p58
tp59
Rp60
sg10
I12784
sg11
g25
(g37
S'\xf9\xc9\x85\xc0\xaf\x18\\@'
p61
tp62
Rp63
sg12
S'2_file_delay_100ms_jit_10ms_cache_20000'
p64
sg14
S'100ms'
p65
sg16
g25
(g37
S'\xc9|i\n\xf9\x05\\@'
p66
tp67
Rp68
sg17
g25
(g37
S'\xfe\x9e7\xa2C\xb0\x10@'
p69
tp70
Rp71
sg18
S'20000'
p72
sg20
F637.8089079856873
sg21
g25
(g37
S'\xe6\x14ect\x85[@'
p73
tp74
Rp75
sba(i__main__
MeasurementObject
p76
(dp77
g3
F95.37291526794434
sg4
F148.41389656066895
sg5
S'10ms'
p78
sg7
g8
sg9
g25
(g29
S'\x0e\x02\x00\x00'
p79
tp80
Rp81
sg10
I12784
sg11
g25
(g37
S'\xedxN\xdd|\xf9[@'
p82
tp83
Rp84
sg12
S'2_file_delay_100ms_jit_10ms_cache_50000'
p85
sg14
S'100ms'
p86
sg16
g25
(g37
S'\x86\xa8\x9b\xe9m\xe8[@'
p87
tp88
Rp89
sg17
g25
(g37
S'\n\xb9\xa6\xafl\xb1\x0f@'
p90
tp91
Rp92
sg18
S'50000'
p93
sg20
F446.1053030490875
sg21
g25
(g37
S'|\x87&mAx[@'
p94
tp95
Rp96
sba(i__main__
MeasurementObject
p97
(dp98
g3
F94.80690956115723
sg4
F170.94898223876953
sg5
S'10ms'
p99
sg7
g8
sg9
g25
(g29
S'\xdd\x02\x00\x00'
p100
tp101
Rp102
sg10
I12784
sg11
g25
(g37
S'>\xb0\xd1\x0b\x99\x01\\@'
p103
tp104
Rp105
sg12
S'2_file_delay_100ms_jit_10ms_cache_5000'
p106
sg14
S'100ms'
p107
sg16
g25
(g37
S'\x81\x84\x9f$\x1c\xe9[@'
p108
tp109
Rp110
sg17
g25
(g37
S'\xe2\xa1\x19\x82_\xed\x10@'
p111
tp112
Rp113
sg18
S'5000'
p114
sg20
F436.49643898010254
sg21
g25
(g37
S'\xba}u\x98\xe5\x87[@'
p115
tp116
Rp117
sba(i__main__
MeasurementObject
p118
(dp119
g3
F93.08099746704102
sg4
F188.77911567687988
sg5
S'10ms'
p120
sg7
g8
sg9
g25
(g29
S'\x94\x03\x00\x00'
p121
tp122
Rp123
sg10
I12784
sg11
g25
(g37
S'\xc6j\xebw\x7f\xf5[@'
p124
tp125
Rp126
sg12
S'2_file_delay_100ms_jit_10ms_cache_10'
p127
sg14
S'100ms'
p128
sg16
g25
(g37
S'>\xb0\xd1{\xb8\xd6[@'
p129
tp130
Rp131
sg17
g25
(g37
S'\xcf\xefp\xd9y\xc4\x10@'
p132
tp133
Rp134
sg18
S'10'
p135
sg20
F440.76172399520874
sg21
g25
(g37
S'W-A\x9b3q[@'
p136
tp137
Rp138
sba.