(lp0
(i__main__
MeasurementObject
p1
(dp2
S'minDelay'
p3
F0.7770061492919922
sS'maxDelay'
p4
F125.26512145996094
sS'JITTER'
p5
S'10ms'
p6
sS'FILE_NUMBER'
p7
S'2'
p8
sS'maxNumberOfPackets'
p9
cnumpy.core.multiarray
scalar
p10
(cnumpy
dtype
p11
(S'i4'
p12
I0
I1
tp13
Rp14
(I3
S'<'
p15
NNNI-1
I-1
I0
tp16
bS'2\x17\x00\x00'
p17
tp18
Rp19
sS'numberOfContentObjects'
p20
I11914
sS'delayOfMaxNumOfPacketsMax'
p21
g10
(g11
(S'f8'
p22
I0
I1
tp23
Rp24
(I3
S'<'
p25
NNNI-1
I-1
I0
tp26
bS'\xb6\xf5\xb7\x07\xa39\x00@'
p27
tp28
Rp29
sS'filename'
p30
S'2_file_delay_100ms_jit_10ms_cache_20000_secondDownload'
p31
sS'DELAY'
p32
S'100ms'
p33
sS'delayOfMaxNumOfPacketsMin'
p34
g10
(g24
S'\xb6\xf5\xb7\x07\xf2p\xf6?'
p35
tp36
Rp37
sS'stdDev'
p38
g10
(g24
S'\xbfR<\xc6k~\x05@'
p39
tp40
Rp41
sS'CACHE_SIZE'
p42
S'20000'
p43
sS'downloadTime'
p44
F64.78889083862305
sS'meanDelay'
p45
g10
(g24
S'\xa6\xa5\xa5%v\x9f\x02@'
p46
tp47
Rp48
sba(i__main__
MeasurementObject
p49
(dp50
g3
F101.16910934448242
sg4
F373.9910125732422
sg5
S'10ms'
p51
sg7
g8
sg9
g10
(g14
S'P\x06\x00\x00'
p52
tp53
Rp54
sg20
I12778
sg21
g10
(g24
S'\xb4\xecx>\xb9g]@'
p55
tp56
Rp57
sg30
S'2_file_delay_100ms_jit_10ms_cache_10000'
p58
sg32
S'100ms'
p59
sg34
g10
(g24
S'P.D]\xfb\x0f]@'
p60
tp61
Rp62
sg38
g10
(g24
S'%\xb6B\xc2t\x83\x1a@'
p63
tp64
Rp65
sg42
S'10000'
p66
sg44
F463.3673448562622
sg45
g10
(g24
S'EF/\xd24\x89]@'
p67
tp68
Rp69
sba(i__main__
MeasurementObject
p70
(dp71
g3
F2.056121826171875
sg4
F1245.203971862793
sg5
S'10ms'
p72
sg7
g8
sg9
g10
(g14
S'[\x18\x00\x00'
p73
tp74
Rp75
sg20
I12785
sg21
g10
(g24
S'A\xc2O\x8e\xe9/^@'
p76
tp77
Rp78
sg30
S'2_file_delay_100ms_jit_10ms_cache_10000_secondDownload'
p79
sg32
S'100ms'
p80
sg34
g10
(g24
S'\xfa\xd2\xc4!\x1b\xa0\\@'
p81
tp82
Rp83
sg38
g10
(g24
S'\xed\xa0\xa8\xa8\xd0d*@'
p84
tp85
Rp86
sg42
S'10000'
p87
sg44
F590.7296488285065
sg45
g10
(g24
S'\x08\xdcAs\x05\x8d]@'
p88
tp89
Rp90
sba(i__main__
MeasurementObject
p91
(dp92
g3
F98.78897666931152
sg4
F1495.9590435028076
sg5
S'10ms'
p93
sg7
g8
sg9
g10
(g14
S'$\x1c\x00\x00'
p94
tp95
Rp96
sg20
I12796
sg21
g10
(g24
S'\x99/M\x94\x84\xf6]@'
p97
tp98
Rp99
sg30
S'2_file_delay_100ms_jit_10ms_cache_20000'
p100
sg32
S'100ms'
p101
sg34
g10
(g24
S'\x11u3@-5\\@'
p102
tp103
Rp104
sg38
g10
(g24
S'\xb7\x19\x1c\xe1@?,@'
p105
tp106
Rp107
sg42
S'20000'
p108
sg44
F433.5533080101013
sg45
g10
(g24
S'.C5\x1c\xd4U]@'
p109
tp110
Rp111
sba.